; Function Attrs: nounwind uwtable
define ptr @l_Lean_Linter_getDeprecatedNewName(ptr noundef %0, ptr noundef %1) local_unnamed_addr #0 {
  %3 = load ptr, ptr @l_Lean_Linter_instInhabitedDeprecationEntry, align 8, !tbaa !4
  %4 = load ptr, ptr @l_Lean_Linter_isDeprecated___closed__1, align 8, !tbaa !4
  %5 = tail call ptr @l_Lean_ParametricAttribute_getParam_x3f___rarg(ptr noundef %3, ptr noundef %4, ptr noundef %0, ptr noundef %1) #4
  %6 = ptrtoint ptr %5 to i64
  %7 = and i64 %6, 1
  %.not.i18 = icmp eq i64 %7, 0
  br i1 %.not.i18, label %11, label %8

8:                                                ; preds = %2
  %9 = lshr i64 %6, 1
  %10 = trunc i64 %9 to i32
  br label %lean_obj_tag.exit

11:                                               ; preds = %2
  %12 = getelementptr i8, ptr %5, i64 4
  %.val.i = load i32, ptr %12, align 4
  %13 = lshr i32 %.val.i, 24
  br label %lean_obj_tag.exit

lean_obj_tag.exit:                                ; preds = %8, %11
  %.0.i = phi i32 [ %10, %8 ], [ %13, %11 ]
  %14 = icmp eq i32 %.0.i, 0
  br i1 %14, label %lean_dec.exit, label %15

15:                                               ; preds = %lean_obj_tag.exit
  %16 = getelementptr inbounds nuw i8, ptr %5, i64 8
  %17 = load ptr, ptr %16, align 8, !tbaa !4
  %18 = ptrtoint ptr %17 to i64
  %19 = and i64 %18, 1
  %.not = icmp eq i64 %19, 0
  br i1 %.not, label %20, label %lean_inc.exit14

20:                                               ; preds = %15
  %.val.i19 = load i32, ptr %17, align 4, !tbaa !8
  %21 = icmp sgt i32 %.val.i19, 0
  br i1 %21, label %22, label %24, !prof !11

22:                                               ; preds = %20
  %23 = add nuw i32 %.val.i19, 1
  store i32 %23, ptr %17, align 4, !tbaa !8
  br label %lean_inc.exit14

24:                                               ; preds = %20
  %.not.i20 = icmp eq i32 %.val.i19, 0
  br i1 %.not.i20, label %lean_inc.exit14, label %25

25:                                               ; preds = %24
  tail call void @lean_inc_ref_cold(ptr noundef nonnull %17) #4
  br label %lean_inc.exit14

lean_inc.exit14:                                  ; preds = %25, %24, %22, %15
  br i1 %.not.i18, label %26, label %lean_dec.exit15

26:                                               ; preds = %lean_inc.exit14
  %27 = load i32, ptr %5, align 4, !tbaa !8
  %28 = icmp sgt i32 %27, 1
  br i1 %28, label %29, label %31, !prof !11

29:                                               ; preds = %26
  %30 = add nsw i32 %27, -1
  store i32 %30, ptr %5, align 4, !tbaa !8
  br label %lean_dec.exit15

31:                                               ; preds = %26
  %.not.i = icmp eq i32 %27, 0
  br i1 %.not.i, label %lean_dec.exit15, label %32

32:                                               ; preds = %31
  tail call void @lean_dec_ref_cold(ptr noundef nonnull %5) #4
  br label %lean_dec.exit15

lean_dec.exit15:                                  ; preds = %32, %31, %29, %lean_inc.exit14
  %33 = getelementptr inbounds nuw i8, ptr %17, i64 8
  %34 = load ptr, ptr %33, align 8, !tbaa !4
  %35 = ptrtoint ptr %34 to i64
  %36 = and i64 %35, 1
  %.not25 = icmp eq i64 %36, 0
  br i1 %.not25, label %37, label %lean_inc.exit

37:                                               ; preds = %lean_dec.exit15
  %.val.i21 = load i32, ptr %34, align 4, !tbaa !8
  %38 = icmp sgt i32 %.val.i21, 0
  br i1 %38, label %39, label %41, !prof !11

39:                                               ; preds = %37
  %40 = add nuw i32 %.val.i21, 1
  store i32 %40, ptr %34, align 4, !tbaa !8
  br label %lean_inc.exit

41:                                               ; preds = %37
  %.not.i22 = icmp eq i32 %.val.i21, 0
  br i1 %.not.i22, label %lean_inc.exit, label %42

42:                                               ; preds = %41
  tail call void @lean_inc_ref_cold(ptr noundef nonnull %34) #4
  br label %lean_inc.exit

lean_inc.exit:                                    ; preds = %42, %41, %39, %lean_dec.exit15
  br i1 %.not, label %43, label %lean_dec.exit

43:                                               ; preds = %lean_inc.exit
  %44 = load i32, ptr %17, align 4, !tbaa !8
  %45 = icmp sgt i32 %44, 1
  br i1 %45, label %46, label %48, !prof !11

46:                                               ; preds = %43
  %47 = add nsw i32 %44, -1
  store i32 %47, ptr %17, align 4, !tbaa !8
  br label %lean_dec.exit

48:                                               ; preds = %43
  %.not.i16 = icmp eq i32 %44, 0
  br i1 %.not.i16, label %lean_dec.exit, label %49

49:                                               ; preds = %48
  tail call void @lean_dec_ref_cold(ptr noundef nonnull %17) #4
  br label %lean_dec.exit

lean_dec.exit:                                    ; preds = %lean_inc.exit, %46, %48, %49, %lean_obj_tag.exit
  %.0 = phi ptr [ inttoptr (i64 1 to ptr), %lean_obj_tag.exit ], [ %34, %49 ], [ %34, %48 ], [ %34, %46 ], [ %34, %lean_inc.exit ]
  ret ptr %.0
}